target datalayout = "e-m:e-p270:32:32-p271:32:32-p272:64:64-i64:64-i128:128-f80:128-n8:16:32:64-S128"
target triple = "x86_64-pc-linux-gnu"

%"class.google::protobuf::internal::LogMessage" = type { i32, ptr, i32, %"class.std::__cxx11::basic_string" }
%"class.std::__cxx11::basic_string" = type { %"struct.std::__cxx11::basic_string<char>::_Alloc_hider", i64, %union.anon }
%"struct.std::__cxx11::basic_string<char>::_Alloc_hider" = type { ptr }
%union.anon = type { i64, [8 x i8] }
%"class.google::protobuf::internal::LogFinisher" = type { i8 }
%"class.google::protobuf::strings::ByteSource" = type { ptr }
%"class.google::protobuf::strings::LimitByteSource" = type { %"class.google::protobuf::strings::ByteSource", ptr, i64 }

@.str = private unnamed_addr constant [40 x i8] c"third_party/protobuf-lite/bytestream.cc\00", align 1
@.str.9 = private unnamed_addr constant [32 x i8] c"CHECK failed: (n) <= (limit_): \00", align 1

; Function Attrs: mustprogress uwtable
define void @_ZN6google8protobuf7strings15LimitByteSource4SkipEm(ptr noundef nonnull align 8 dereferenceable(24) %0, i64 noundef %1) unnamed_addr #4 align 2 personality ptr @__gxx_personality_v0 {
  %3 = alloca ptr, align 8
  %4 = alloca i64, align 8
  %5 = alloca %"class.google::protobuf::internal::LogMessage", align 8
  %6 = alloca i1, align 1
  %7 = alloca ptr, align 8
  %8 = alloca i32, align 4
  %9 = alloca %"class.google::protobuf::internal::LogFinisher", align 1
  store ptr %0, ptr %3, align 8
  store i64 %1, ptr %4, align 8
  %10 = load ptr, ptr %3, align 8
  br label %11

11:                                               ; preds = %25, %2
  br i1 false, label %12, label %33

12:                                               ; preds = %11
  %13 = load i64, ptr %4, align 8
  %14 = getelementptr inbounds %"class.google::protobuf::strings::LimitByteSource", ptr %10, i32 0, i32 2
  %15 = load i64, ptr %14, align 8
  %16 = icmp ule i64 %13, %15
  store i1 false, ptr %6, align 1
  br i1 %16, label %17, label %18

17:                                               ; preds = %12
  br label %22

18:                                               ; preds = %12
  call void @_ZN6google8protobuf8internal10LogMessageC1ENS0_8LogLevelEPKci(ptr noundef nonnull align 8 dereferenceable(56) %5, i32 noundef 3, ptr noundef @.str, i32 noundef 185)
  store i1 true, ptr %6, align 1
  %19 = invoke noundef nonnull align 8 dereferenceable(56) ptr @_ZN6google8protobuf8internal10LogMessagelsEPKc(ptr noundef nonnull align 8 dereferenceable(56) %5, ptr noundef @.str.9)
          to label %20 unwind label %26

20:                                               ; preds = %18
  invoke void @_ZN6google8protobuf8internal11LogFinisheraSERNS1_10LogMessageE(ptr noundef nonnull align 1 dereferenceable(1) %9, ptr noundef nonnull align 8 dereferenceable(56) %19)
          to label %21 unwind label %26

21:                                               ; preds = %20
  br label %22

22:                                               ; preds = %21, %17
  %23 = load i1, ptr %6, align 1
  br i1 %23, label %24, label %25

24:                                               ; preds = %22
  call void @_ZN6google8protobuf8internal10LogMessageD1Ev(ptr noundef nonnull align 8 dereferenceable(56) %5) #3
  br label %25

25:                                               ; preds = %24, %22
  br label %11, !llvm.loop !10

26:                                               ; preds = %20, %18
  %27 = landingpad { ptr, i32 }
          cleanup
  %28 = extractvalue { ptr, i32 } %27, 0
  store ptr %28, ptr %7, align 8
  %29 = extractvalue { ptr, i32 } %27, 1
  store i32 %29, ptr %8, align 4
  %30 = load i1, ptr %6, align 1
  br i1 %30, label %31, label %32

31:                                               ; preds = %26
  call void @_ZN6google8protobuf8internal10LogMessageD1Ev(ptr noundef nonnull align 8 dereferenceable(56) %5) #3
  br label %32

32:                                               ; preds = %31, %26
  br label %44

33:                                               ; preds = %11
  %34 = getelementptr inbounds %"class.google::protobuf::strings::LimitByteSource", ptr %10, i32 0, i32 1
  %35 = load ptr, ptr %34, align 8
  %36 = load i64, ptr %4, align 8
  %37 = load ptr, ptr %35, align 8
  %38 = getelementptr inbounds ptr, ptr %37, i64 4
  %39 = load ptr, ptr %38, align 8
  call void %39(ptr noundef nonnull align 8 dereferenceable(8) %35, i64 noundef %36)
  %40 = load i64, ptr %4, align 8
  %41 = getelementptr inbounds %"class.google::protobuf::strings::LimitByteSource", ptr %10, i32 0, i32 2
  %42 = load i64, ptr %41, align 8
  %43 = sub i64 %42, %40
  store i64 %43, ptr %41, align 8
  ret void

44:                                               ; preds = %32
  %45 = load ptr, ptr %7, align 8
  %46 = load i32, ptr %8, align 4
  %47 = insertvalue { ptr, i32 } poison, ptr %45, 0
  %48 = insertvalue { ptr, i32 } %47, i32 %46, 1
  resume { ptr, i32 } %48
}