; Function Attrs: mustprogress uwtable
define void @_ZN6google8protobuf7strings15LimitByteSource4SkipEm(ptr nocapture noundef nonnull align 8 dereferenceable(24) %0, i64 noundef %1) unnamed_addr #3 align 2 personality ptr @__gxx_personality_v0 {
  %3 = getelementptr inbounds i8, ptr %0, i64 8
  %4 = load ptr, ptr %3, align 8
  %5 = load ptr, ptr %4, align 8
  %6 = getelementptr inbounds i8, ptr %5, i64 32
  %7 = load ptr, ptr %6, align 8
  tail call void %7(ptr noundef nonnull align 8 dereferenceable(8) %4, i64 noundef %1)
  %8 = getelementptr inbounds i8, ptr %0, i64 16
  %9 = load i64, ptr %8, align 8
  %10 = sub i64 %9, %1
  store i64 %10, ptr %8, align 8
  ret void
}